target datalayout = "e-m:e-p270:32:32-p271:32:32-p272:64:64-i64:64-i128:128-f80:128-n8:16:32:64-S128"
target triple = "x86_64-pc-linux-gnu"

%struct.HeapTupleData = type { i32, %struct.ItemPointerData, i32, ptr }
%struct.ItemPointerData = type { %struct.BlockIdData, i16 }
%struct.BlockIdData = type { i16, i16 }
%struct.HeapTupleHeaderData = type { %union.anon, %struct.ItemPointerData, i16, i16, i8, [0 x i8] }
%union.anon = type { %struct.HeapTupleFields }
%struct.HeapTupleFields = type { i32, i32, %union.anon.0 }
%union.anon.0 = type { i32 }
%struct.CompactAttribute = type { i32, i16, i8, i8, i8, i8, i8, i8, i8 }
%struct.TupleDescData = type { i32, i32, i32, i32, ptr, [0 x %struct.CompactAttribute] }

@.str = private unnamed_addr constant [29 x i8] c"unsupported byval length: %d\00", align 1
@.str.1 = private unnamed_addr constant [38 x i8] c"../../../src/include/access/tupmacs.h\00", align 1
@__func__.fetch_att = private unnamed_addr constant [10 x i8] c"fetch_att\00", align 1

; Function Attrs: inlinehint nounwind uwtable
define internal i64 @PointerGetDatum(ptr noundef %0) #3 {
  %2 = alloca ptr, align 8
  store ptr %0, ptr %2, align 8
  %3 = load ptr, ptr %2, align 8
  %4 = ptrtoint ptr %3 to i64
  ret i64 %4
}

; Function Attrs: inlinehint nounwind uwtable
define internal i64 @Int32GetDatum(i32 noundef %0) #3 {
  %2 = alloca i32, align 4
  store i32 %0, ptr %2, align 4
  %3 = load i32, ptr %2, align 4
  %4 = sext i32 %3 to i64
  ret i64 %4
}

; Function Attrs: inlinehint nounwind uwtable
define internal i64 @Int16GetDatum(i16 noundef signext %0) #3 {
  %2 = alloca i16, align 2
  store i16 %0, ptr %2, align 2
  %3 = load i16, ptr %2, align 2
  %4 = sext i16 %3 to i64
  ret i64 %4
}

; Function Attrs: inlinehint nounwind uwtable
define internal i64 @CharGetDatum(i8 noundef signext %0) #3 {
  %2 = alloca i8, align 1
  store i8 %0, ptr %2, align 1
  %3 = load i8, ptr %2, align 1
  %4 = sext i8 %3 to i64
  ret i64 %4
}

; Function Attrs: inlinehint nounwind uwtable
define internal zeroext i1 @HeapTupleHasNulls(ptr noundef %0) #3 {
  %2 = alloca ptr, align 8
  store ptr %0, ptr %2, align 8
  %3 = load ptr, ptr %2, align 8
  %4 = getelementptr inbounds nuw %struct.HeapTupleData, ptr %3, i32 0, i32 3
  %5 = load ptr, ptr %4, align 8
  %6 = getelementptr inbounds nuw %struct.HeapTupleHeaderData, ptr %5, i32 0, i32 3
  %7 = load i16, ptr %6, align 4
  %8 = zext i16 %7 to i32
  %9 = and i32 %8, 1
  %10 = icmp ne i32 %9, 0
  ret i1 %10
}

; Function Attrs: inlinehint nounwind uwtable
define internal zeroext i1 @att_isnull(i32 noundef %0, ptr noundef %1) #3 {
  %3 = alloca i32, align 4
  %4 = alloca ptr, align 8
  store i32 %0, ptr %3, align 4
  store ptr %1, ptr %4, align 8
  %5 = load ptr, ptr %4, align 8
  %6 = load i32, ptr %3, align 4
  %7 = ashr i32 %6, 3
  %8 = sext i32 %7 to i64
  %9 = getelementptr inbounds i8, ptr %5, i64 %8
  %10 = load i8, ptr %9, align 1
  %11 = zext i8 %10 to i32
  %12 = load i32, ptr %3, align 4
  %13 = and i32 %12, 7
  %14 = shl i32 1, %13
  %15 = and i32 %11, %14
  %16 = icmp ne i32 %15, 0
  %17 = xor i1 %16, true
  ret i1 %17
}

; Function Attrs: inlinehint nounwind uwtable
define internal i64 @fetch_att(ptr noundef %0, i1 noundef zeroext %1, i32 noundef %2) #3 {
  %4 = alloca i64, align 8
  %5 = alloca ptr, align 8
  %6 = alloca i8, align 1
  %7 = alloca i32, align 4
  store ptr %0, ptr %5, align 8
  %8 = zext i1 %1 to i8
  store i8 %8, ptr %6, align 1
  store i32 %2, ptr %7, align 4
  %9 = load i8, ptr %6, align 1, !range !4, !noundef !5
  %10 = trunc i8 %9 to i1
  br i1 %10, label %11, label %39

11:                                               ; preds = %3
  %12 = load i32, ptr %7, align 4
  switch i32 %12, label %28 [
    i32 1, label %13
    i32 2, label %17
    i32 4, label %21
    i32 8, label %25
  ]

13:                                               ; preds = %11
  %14 = load ptr, ptr %5, align 8
  %15 = load i8, ptr %14, align 1
  %16 = call i64 @CharGetDatum(i8 noundef signext %15)
  store i64 %16, ptr %4, align 8
  br label %42

17:                                               ; preds = %11
  %18 = load ptr, ptr %5, align 8
  %19 = load i16, ptr %18, align 2
  %20 = call i64 @Int16GetDatum(i16 noundef signext %19)
  store i64 %20, ptr %4, align 8
  br label %42

21:                                               ; preds = %11
  %22 = load ptr, ptr %5, align 8
  %23 = load i32, ptr %22, align 4
  %24 = call i64 @Int32GetDatum(i32 noundef %23)
  store i64 %24, ptr %4, align 8
  br label %42

25:                                               ; preds = %11
  %26 = load ptr, ptr %5, align 8
  %27 = load i64, ptr %26, align 8
  store i64 %27, ptr %4, align 8
  br label %42

28:                                               ; preds = %11
  br label %29

29:                                               ; preds = %28
  br i1 true, label %30, label %32

30:                                               ; preds = %29
  %31 = call zeroext i1 @errstart_cold(i32 noundef 21, ptr noundef null) #7
  br i1 %31, label %34, label %37

32:                                               ; preds = %29
  %33 = call zeroext i1 @errstart(i32 noundef 21, ptr noundef null)
  br i1 %33, label %34, label %37

34:                                               ; preds = %32, %30
  %35 = load i32, ptr %7, align 4
  %36 = call i32 (ptr, ...) @errmsg_internal(ptr noundef @.str, i32 noundef %35)
  call void @errfinish(ptr noundef @.str.1, i32 noundef 70, ptr noundef @__func__.fetch_att)
  br label %37

37:                                               ; preds = %34, %32, %30
  unreachable

38:                                               ; No predecessors!
  store i64 0, ptr %4, align 8
  br label %42

39:                                               ; preds = %3
  %40 = load ptr, ptr %5, align 8
  %41 = call i64 @PointerGetDatum(ptr noundef %40)
  store i64 %41, ptr %4, align 8
  br label %42

42:                                               ; preds = %39, %38, %25, %21, %17, %13
  %43 = load i64, ptr %4, align 8
  ret i64 %43
}

; Function Attrs: inlinehint nounwind uwtable
define internal ptr @TupleDescCompactAttr(ptr noundef %0, i32 noundef %1) #3 {
  %3 = alloca ptr, align 8
  %4 = alloca i32, align 4
  %5 = alloca ptr, align 8
  store ptr %0, ptr %3, align 8
  store i32 %1, ptr %4, align 4
  call void @llvm.lifetime.start.p0(i64 8, ptr %5) #6
  %6 = load ptr, ptr %3, align 8
  %7 = getelementptr inbounds nuw %struct.TupleDescData, ptr %6, i32 0, i32 5
  %8 = load i32, ptr %4, align 4
  %9 = sext i32 %8 to i64
  %10 = getelementptr inbounds [0 x %struct.CompactAttribute], ptr %7, i64 0, i64 %9
  store ptr %10, ptr %5, align 8
  %11 = load ptr, ptr %5, align 8
  call void @llvm.lifetime.end.p0(i64 8, ptr %5) #6
  ret ptr %11
}

; Function Attrs: inlinehint nounwind uwtable
define internal zeroext i1 @HeapTupleNoNulls(ptr noundef %0) #3 {
  %2 = alloca ptr, align 8
  store ptr %0, ptr %2, align 8
  %3 = load ptr, ptr %2, align 8
  %4 = call zeroext i1 @HeapTupleHasNulls(ptr noundef %3)
  %5 = xor i1 %4, true
  ret i1 %5
}

; Function Attrs: inlinehint nounwind uwtable
define internal i64 @fastgetattr(ptr noundef %0, i32 noundef %1, ptr noundef %2, ptr noundef %3) #3 {
  %5 = alloca i64, align 8
  %6 = alloca ptr, align 8
  %7 = alloca i32, align 4
  %8 = alloca ptr, align 8
  %9 = alloca ptr, align 8
  %10 = alloca ptr, align 8
  %11 = alloca i32, align 4
  store ptr %0, ptr %6, align 8
  store i32 %1, ptr %7, align 4
  store ptr %2, ptr %8, align 8
  store ptr %3, ptr %9, align 8
  %12 = load ptr, ptr %9, align 8
  store i8 0, ptr %12, align 1
  %13 = load ptr, ptr %6, align 8
  %14 = call zeroext i1 @HeapTupleNoNulls(ptr noundef %13)
  br i1 %14, label %15, label %56

15:                                               ; preds = %4
  call void @llvm.lifetime.start.p0(i64 8, ptr %10) #6
  %16 = load ptr, ptr %8, align 8
  %17 = load i32, ptr %7, align 4
  %18 = sub i32 %17, 1
  %19 = call ptr @TupleDescCompactAttr(ptr noundef %16, i32 noundef %18)
  store ptr %19, ptr %10, align 8
  %20 = load ptr, ptr %10, align 8
  %21 = getelementptr inbounds nuw %struct.CompactAttribute, ptr %20, i32 0, i32 0
  %22 = load i32, ptr %21, align 4
  %23 = icmp sge i32 %22, 0
  br i1 %23, label %24, label %50

24:                                               ; preds = %15
  %25 = load ptr, ptr %6, align 8
  %26 = getelementptr inbounds nuw %struct.HeapTupleData, ptr %25, i32 0, i32 3
  %27 = load ptr, ptr %26, align 8
  %28 = load ptr, ptr %6, align 8
  %29 = getelementptr inbounds nuw %struct.HeapTupleData, ptr %28, i32 0, i32 3
  %30 = load ptr, ptr %29, align 8
  %31 = getelementptr inbounds nuw %struct.HeapTupleHeaderData, ptr %30, i32 0, i32 4
  %32 = load i8, ptr %31, align 2
  %33 = zext i8 %32 to i32
  %34 = sext i32 %33 to i64
  %35 = getelementptr inbounds i8, ptr %27, i64 %34
  %36 = load ptr, ptr %10, align 8
  %37 = getelementptr inbounds nuw %struct.CompactAttribute, ptr %36, i32 0, i32 0
  %38 = load i32, ptr %37, align 4
  %39 = sext i32 %38 to i64
  %40 = getelementptr inbounds i8, ptr %35, i64 %39
  %41 = load ptr, ptr %10, align 8
  %42 = getelementptr inbounds nuw %struct.CompactAttribute, ptr %41, i32 0, i32 2
  %43 = load i8, ptr %42, align 2, !range !4, !noundef !5
  %44 = trunc i8 %43 to i1
  %45 = load ptr, ptr %10, align 8
  %46 = getelementptr inbounds nuw %struct.CompactAttribute, ptr %45, i32 0, i32 1
  %47 = load i16, ptr %46, align 4
  %48 = sext i16 %47 to i32
  %49 = call i64 @fetch_att(ptr noundef %40, i1 noundef zeroext %44, i32 noundef %48)
  store i64 %49, ptr %5, align 8
  store i32 1, ptr %11, align 4
  br label %55

50:                                               ; preds = %15
  %51 = load ptr, ptr %6, align 8
  %52 = load i32, ptr %7, align 4
  %53 = load ptr, ptr %8, align 8
  %54 = call i64 @nocachegetattr(ptr noundef %51, i32 noundef %52, ptr noundef %53)
  store i64 %54, ptr %5, align 8
  store i32 1, ptr %11, align 4
  br label %55

55:                                               ; preds = %50, %24
  call void @llvm.lifetime.end.p0(i64 8, ptr %10) #6
  br label %72

56:                                               ; preds = %4
  %57 = load i32, ptr %7, align 4
  %58 = sub i32 %57, 1
  %59 = load ptr, ptr %6, align 8
  %60 = getelementptr inbounds nuw %struct.HeapTupleData, ptr %59, i32 0, i32 3
  %61 = load ptr, ptr %60, align 8
  %62 = getelementptr inbounds nuw %struct.HeapTupleHeaderData, ptr %61, i32 0, i32 5
  %63 = getelementptr inbounds [0 x i8], ptr %62, i64 0, i64 0
  %64 = call zeroext i1 @att_isnull(i32 noundef %58, ptr noundef %63)
  br i1 %64, label %65, label %67

65:                                               ; preds = %56
  %66 = load ptr, ptr %9, align 8
  store i8 1, ptr %66, align 1
  store i64 0, ptr %5, align 8
  br label %72

67:                                               ; preds = %56
  %68 = load ptr, ptr %6, align 8
  %69 = load i32, ptr %7, align 4
  %70 = load ptr, ptr %8, align 8
  %71 = call i64 @nocachegetattr(ptr noundef %68, i32 noundef %69, ptr noundef %70)
  store i64 %71, ptr %5, align 8
  br label %72

72:                                               ; preds = %67, %65, %55
  %73 = load i64, ptr %5, align 8
  ret i64 %73
}

; Function Attrs: inlinehint nounwind uwtable
define internal i64 @heap_getattr(ptr noundef %0, i32 noundef %1, ptr noundef %2, ptr noundef %3) #3 {
  %5 = alloca i64, align 8
  %6 = alloca ptr, align 8
  %7 = alloca i32, align 4
  %8 = alloca ptr, align 8
  %9 = alloca ptr, align 8
  store ptr %0, ptr %6, align 8
  store i32 %1, ptr %7, align 4
  store ptr %2, ptr %8, align 8
  store ptr %3, ptr %9, align 8
  %10 = load i32, ptr %7, align 4
  %11 = icmp sgt i32 %10, 0
  br i1 %11, label %12, label %33

12:                                               ; preds = %4
  %13 = load i32, ptr %7, align 4
  %14 = load ptr, ptr %6, align 8
  %15 = getelementptr inbounds nuw %struct.HeapTupleData, ptr %14, i32 0, i32 3
  %16 = load ptr, ptr %15, align 8
  %17 = getelementptr inbounds nuw %struct.HeapTupleHeaderData, ptr %16, i32 0, i32 2
  %18 = load i16, ptr %17, align 2
  %19 = zext i16 %18 to i32
  %20 = and i32 %19, 2047
  %21 = icmp sgt i32 %13, %20
  br i1 %21, label %22, label %27

22:                                               ; preds = %12
  %23 = load ptr, ptr %8, align 8
  %24 = load i32, ptr %7, align 4
  %25 = load ptr, ptr %9, align 8
  %26 = call i64 @getmissingattr(ptr noundef %23, i32 noundef %24, ptr noundef %25)
  store i64 %26, ptr %5, align 8
  br label %39

27:                                               ; preds = %12
  %28 = load ptr, ptr %6, align 8
  %29 = load i32, ptr %7, align 4
  %30 = load ptr, ptr %8, align 8
  %31 = load ptr, ptr %9, align 8
  %32 = call i64 @fastgetattr(ptr noundef %28, i32 noundef %29, ptr noundef %30, ptr noundef %31)
  store i64 %32, ptr %5, align 8
  br label %39

33:                                               ; preds = %4
  %34 = load ptr, ptr %6, align 8
  %35 = load i32, ptr %7, align 4
  %36 = load ptr, ptr %8, align 8
  %37 = load ptr, ptr %9, align 8
  %38 = call i64 @heap_getsysattr(ptr noundef %34, i32 noundef %35, ptr noundef %36, ptr noundef %37)
  store i64 %38, ptr %5, align 8
  br label %39

39:                                               ; preds = %33, %27, %22
  %40 = load i64, ptr %5, align 8
  ret i64 %40
}